; Function Attrs: nofree nounwind uwtable
define void @Cbs2_ManPrintFanouts(ptr noundef readonly captures(none) %0) local_unnamed_addr #13 {
  %2 = getelementptr inbounds nuw i8, ptr %0, i64 48
  %3 = load ptr, ptr %2, align 8, !tbaa !38
  %4 = getelementptr inbounds nuw i8, ptr %3, i64 24
  %5 = load i32, ptr %4, align 8, !tbaa !39
  %6 = icmp sgt i32 %5, 0
  br i1 %6, label %.lr.ph, label %.critedge

.lr.ph:                                           ; preds = %1
  %7 = getelementptr i8, ptr %0, i64 248
  %8 = getelementptr i8, ptr %0, i64 232
  br label %9

9:                                                ; preds = %.lr.ph, %23
  %10 = phi ptr [ %3, %.lr.ph ], [ %24, %23 ]
  %indvars.iv = phi i64 [ 0, %.lr.ph ], [ %indvars.iv.next, %23 ]
  %11 = getelementptr i8, ptr %10, i64 32
  %.val = load ptr, ptr %11, align 8, !tbaa !67
  %.not = icmp eq ptr %.val, null
  br i1 %.not, label %.critedge, label %12

12:                                               ; preds = %9
  %.val9 = load ptr, ptr %7, align 8, !tbaa !35
  %13 = getelementptr inbounds nuw i32, ptr %.val9, i64 %indvars.iv
  %14 = load i32, ptr %13, align 4, !tbaa !60
  %.not8 = icmp eq i32 %14, 0
  br i1 %.not8, label %23, label %15

15:                                               ; preds = %12
  %16 = trunc nuw nsw i64 %indvars.iv to i32
  %17 = tail call i32 (ptr, ...) @printf(ptr noundef nonnull dereferenceable(1) @.str.13, i32 noundef %16)
  %.val6.i = load ptr, ptr %7, align 8, !tbaa !35
  %18 = getelementptr inbounds nuw i32, ptr %.val6.i, i64 %indvars.iv
  %.07.i = load i32, ptr %18, align 4, !tbaa !60
  %.not8.i = icmp eq i32 %.07.i, 0
  br i1 %.not8.i, label %Cbs2_ObjPrintFanouts.exit, label %.lr.ph.i

.lr.ph.i:                                         ; preds = %15, %.lr.ph.i
  %.09.i = phi i32 [ %.0.i, %.lr.ph.i ], [ %.07.i, %15 ]
  %19 = ashr i32 %.09.i, 1
  %20 = tail call i32 (ptr, ...) @printf(ptr noundef nonnull dereferenceable(1) @.str.14, i32 noundef %19)
  %.val.i = load ptr, ptr %8, align 8, !tbaa !35
  %21 = sext i32 %.09.i to i64
  %22 = getelementptr inbounds i32, ptr %.val.i, i64 %21
  %.0.i = load i32, ptr %22, align 4, !tbaa !60
  %.not.i = icmp eq i32 %.0.i, 0
  br i1 %.not.i, label %Cbs2_ObjPrintFanouts.exit, label %.lr.ph.i, !llvm.loop !119

Cbs2_ObjPrintFanouts.exit:                        ; preds = %.lr.ph.i, %15
  %putchar.i = tail call i32 @putchar(i32 10)
  %.pre = load ptr, ptr %2, align 8, !tbaa !38
  br label %23

23:                                               ; preds = %12, %Cbs2_ObjPrintFanouts.exit
  %24 = phi ptr [ %10, %12 ], [ %.pre, %Cbs2_ObjPrintFanouts.exit ]
  %indvars.iv.next = add nuw nsw i64 %indvars.iv, 1
  %25 = getelementptr inbounds nuw i8, ptr %24, i64 24
  %26 = load i32, ptr %25, align 8, !tbaa !39
  %27 = sext i32 %26 to i64
  %28 = icmp slt i64 %indvars.iv.next, %27
  br i1 %28, label %9, label %.critedge, !llvm.loop !120

.critedge:                                        ; preds = %9, %23, %1
  ret void
}